Certificate:
    Data:
        Version: 1 (0x0)
        Serial Number: 1 (0x1)
        Signature Algorithm: md5WithRSAEncryption
        Issuer: C=US, ST=Washington, O=Ray CA Inc, CN=RayCAInc
        Validity
            Not Before: Sep 21 21:16:18 2012 GMT
            Not After : Sep 21 21:16:18 2013 GMT
        Subject: C=US, ST=Washington, O=Ray Srv Inc, CN=RaySrvInc
        Subject Public Key Info:
            Public Key Algorithm: rsaEncryption
                Public-Key: (512 bit)
                Modulus:
                    00:b8:f7:77:26:6c:9d:25:f5:e1:ca:28:b4:6a:0b:
                    15:81:13:0e:51:c3:b2:ba:57:5b:69:ff:cb:bb:86:
                    d9:f9:4d:33:1f:43:92:a1:89:2f:d0:08:5b:cf:b7:
                    a1:2b:ea:06:31:e5:32:fd:2b:86:54:09:fb:24:bc:
                    a3:ce:56:22:f1
                Exponent: 65537 (0x10001)
    Signature Algorithm: md5WithRSAEncryption
        12:4c:55:17:c1:c4:19:5f:0d:e2:66:00:84:37:22:62:9b:6d:
        9e:76:fd:a5:82:f5:a2:41:c6:ae:16:88:16:ab:bd:0f:5d:0b:
        7c:fd:52:2a:9b:3f:ea:cf:ea:35:29:37:61:a2:15:8f:27:56:
        38:71:1f:eb:1a:f8:cc:99:22:17
-----BEGIN CERTIFICATE-----
MIIBgDCCASoCAQEwDQYJKoZIhvcNAQEEBQAwSjELMAkGA1UEBhMCVVMxEzARBgNV
BAgTCldhc2hpbmd0b24xEzARBgNVBAoTClJheSBDQSBJbmMxETAPBgNVBAMTCFJh
eUNBSW5jMB4XDTEyMDkyMTIxMTYxOFoXDTEzMDkyMTIxMTYxOFowTDELMAkGA1UE
BhMCVVMxEzARBgNVBAgTCldhc2hpbmd0b24xFDASBgNVBAoTC1JheSBTcnYgSW5j
MRIwEAYDVQQDEwlSYXlTcnZJbmMwXDANBgkqhkiG9w0BAQEFAANLADBIAkEAuPd3
JmydJfXhyii0agsVgRMOUcOyuldbaf/Lu4bZ+U0zH0OSoYkv0Ahbz7ehK+oGMeUy
/SuGVAn7JLyjzlYi8QIDAQABMA0GCSqGSIb3DQEBBAUAA0EAEkxVF8HEGV8N4mYA
hDciYpttnnb9pYL1okHGrhaIFqu9D10LfP1SKps/6s/qNSk3YaIVjydWOHEf6xr4
zJkiFw==
-----END CERTIFICATE-----
